; Function Attrs: mustprogress uwtable
define hidden void @_ZN11opencv_onnx26TensorShapeProto_Dimension11clear_valueEv(ptr noundef nonnull align 8 dereferenceable(48) %0) local_unnamed_addr #3 align 2 {
  %2 = getelementptr inbounds nuw i8, ptr %0, i64 40
  %3 = load i32, ptr %2, align 8, !tbaa !51
  %cond = icmp eq i32 %3, 2
  br i1 %cond, label %4, label %13

4:                                                ; preds = %1
  %5 = getelementptr inbounds nuw i8, ptr %0, i64 32
  %6 = getelementptr inbounds nuw i8, ptr %0, i64 8
  %7 = load i64, ptr %6, align 8, !tbaa !33
  %8 = and i64 %7, 1
  %.not.i = icmp eq i64 %8, 0
  %9 = and i64 %7, -4
  %10 = inttoptr i64 %9 to ptr
  br i1 %.not.i, label %_ZNK6google8protobuf11MessageLite21GetArenaForAllocationEv.exit, label %11, !prof !43

11:                                               ; preds = %4
  %12 = load ptr, ptr %10, align 8, !tbaa !44
  br label %_ZNK6google8protobuf11MessageLite21GetArenaForAllocationEv.exit

_ZNK6google8protobuf11MessageLite21GetArenaForAllocationEv.exit: ; preds = %4, %11
  %.0.i.i = phi ptr [ %12, %11 ], [ %10, %4 ]
  tail call void @_ZN6google8protobuf8internal14ArenaStringPtr7DestroyENS2_12EmptyDefaultEPNS0_5ArenaE(ptr noundef nonnull align 8 dereferenceable(8) %5, ptr noundef %.0.i.i)
  br label %13

13:                                               ; preds = %1, %_ZNK6google8protobuf11MessageLite21GetArenaForAllocationEv.exit
  store i32 0, ptr %2, align 8, !tbaa !51
  ret void
}